; Function Attrs: mustprogress nofree norecurse nosync nounwind willreturn memory(read, inaccessiblemem: none) uwtable
define noundef range(i32 3, 7) i32 @_ZNK4YAML12EmitterState13NextGroupTypeENS_9GroupType5valueE(ptr noundef nonnull readonly align 8 captures(none) dereferenceable(224) %0, i32 noundef %1) local_unnamed_addr #6 align 2 {
  %3 = icmp eq i32 %1, 1
  %4 = getelementptr inbounds nuw i8, ptr %0, i64 176
  %5 = load ptr, ptr %4, align 8, !tbaa !97
  %6 = getelementptr inbounds nuw i8, ptr %0, i64 184
  %7 = load ptr, ptr %6, align 8, !tbaa !97
  %8 = icmp eq ptr %5, %7
  br i1 %3, label %9, label %18

9:                                                ; preds = %2
  br i1 %8, label %_ZNK4YAML12EmitterState11GetFlowTypeENS_9GroupType5valueE.exit, label %_ZNK4YAML12EmitterState16CurGroupFlowTypeEv.exit.i

_ZNK4YAML12EmitterState16CurGroupFlowTypeEv.exit.i: ; preds = %9
  %10 = getelementptr inbounds i8, ptr %7, i64 -8
  %11 = load ptr, ptr %10, align 8, !tbaa !89
  %12 = getelementptr inbounds nuw i8, ptr %11, i64 4
  %13 = load i32, ptr %12, align 4, !tbaa !102
  %14 = icmp eq i32 %13, 1
  br i1 %14, label %_ZNK4YAML12EmitterState11GetFlowTypeENS_9GroupType5valueE.exit.thread, label %_ZNK4YAML12EmitterState11GetFlowTypeENS_9GroupType5valueE.exit

_ZNK4YAML12EmitterState11GetFlowTypeENS_9GroupType5valueE.exit: ; preds = %9, %_ZNK4YAML12EmitterState16CurGroupFlowTypeEv.exit.i
  %15 = getelementptr inbounds nuw i8, ptr %0, i64 96
  %16 = load i32, ptr %15, align 8, !tbaa !30
  %.fr16 = freeze i32 %16
  %17 = icmp eq i32 %.fr16, 29
  %spec.select = select i1 %17, i32 4, i32 3
  br label %_ZNK4YAML12EmitterState11GetFlowTypeENS_9GroupType5valueE.exit.thread

18:                                               ; preds = %2
  br i1 %8, label %_ZNK4YAML12EmitterState11GetFlowTypeENS_9GroupType5valueE.exit9, label %_ZNK4YAML12EmitterState16CurGroupFlowTypeEv.exit.i6

_ZNK4YAML12EmitterState16CurGroupFlowTypeEv.exit.i6: ; preds = %18
  %19 = getelementptr inbounds i8, ptr %7, i64 -8
  %20 = load ptr, ptr %19, align 8, !tbaa !89
  %21 = getelementptr inbounds nuw i8, ptr %20, i64 4
  %22 = load i32, ptr %21, align 4, !tbaa !102
  %23 = icmp eq i32 %22, 1
  br i1 %23, label %_ZNK4YAML12EmitterState11GetFlowTypeENS_9GroupType5valueE.exit.thread, label %_ZNK4YAML12EmitterState11GetFlowTypeENS_9GroupType5valueE.exit9

_ZNK4YAML12EmitterState11GetFlowTypeENS_9GroupType5valueE.exit9: ; preds = %_ZNK4YAML12EmitterState16CurGroupFlowTypeEv.exit.i6, %18
  %24 = getelementptr inbounds nuw i8, ptr %0, i64 100
  %25 = load i32, ptr %24, align 4, !tbaa !30
  %.fr = freeze i32 %25
  %26 = icmp eq i32 %.fr, 29
  %spec.select15 = select i1 %26, i32 6, i32 5
  br label %_ZNK4YAML12EmitterState11GetFlowTypeENS_9GroupType5valueE.exit.thread

_ZNK4YAML12EmitterState11GetFlowTypeENS_9GroupType5valueE.exit.thread: ; preds = %_ZNK4YAML12EmitterState11GetFlowTypeENS_9GroupType5valueE.exit9, %_ZNK4YAML12EmitterState11GetFlowTypeENS_9GroupType5valueE.exit, %_ZNK4YAML12EmitterState16CurGroupFlowTypeEv.exit.i6, %_ZNK4YAML12EmitterState16CurGroupFlowTypeEv.exit.i
  %.0 = phi i32 [ 3, %_ZNK4YAML12EmitterState16CurGroupFlowTypeEv.exit.i ], [ 5, %_ZNK4YAML12EmitterState16CurGroupFlowTypeEv.exit.i6 ], [ %spec.select, %_ZNK4YAML12EmitterState11GetFlowTypeENS_9GroupType5valueE.exit ], [ %spec.select15, %_ZNK4YAML12EmitterState11GetFlowTypeENS_9GroupType5valueE.exit9 ]
  ret i32 %.0
}